; Function Attrs: mustprogress nofree norecurse nosync nounwind willreturn memory(read, inaccessiblemem: none) uwtable
define hidden noundef i32 @_ZNK3sat4drat5valueENS_7literalE(ptr nocapture noundef nonnull readonly align 8 dereferenceable(664) %this, i32 %l.coerce) local_unnamed_addr #8 align 2 {
entry:
  %m_assignment = getelementptr inbounds i8, ptr %this, i64 632
  %0 = load ptr, ptr %m_assignment, align 8
  %cmp.i.i = icmp eq ptr %0, null
  br i1 %cmp.i.i, label %cond.end, label %_ZNK6vectorI5lboolLb0EjE3getEjRKS0_.exit

_ZNK6vectorI5lboolLb0EjE3getEjRKS0_.exit:         ; preds = %entry
  %shr.i = lshr i32 %l.coerce, 1
  %arrayidx.i.i = getelementptr inbounds i8, ptr %0, i64 -4
  %1 = load i32, ptr %arrayidx.i.i, align 4
  %cmp.not.i = icmp ugt i32 %1, %shr.i
  br i1 %cmp.not.i, label %_ZNK6vectorI5lboolLb0EjE3getEjRKS0_.exit.cont, label %cond.end

_ZNK6vectorI5lboolLb0EjE3getEjRKS0_.exit.cont:    ; preds = %_ZNK6vectorI5lboolLb0EjE3getEjRKS0_.exit
  %idxprom.i = zext nneg i32 %shr.i to i64
  %arrayidx.i = getelementptr inbounds i32, ptr %0, i64 %idxprom.i
  %.then.val = load i32, ptr %arrayidx.i, align 4
  %cmp = icmp eq i32 %.then.val, 0
  br i1 %cmp, label %cond.end, label %lor.lhs.false

lor.lhs.false:                                    ; preds = %_ZNK6vectorI5lboolLb0EjE3getEjRKS0_.exit.cont
  %2 = and i32 %l.coerce, 1
  %tobool.i.not = icmp eq i32 %2, 0
  %sub.i = sub nsw i32 0, %.then.val
  %spec.select = select i1 %tobool.i.not, i32 %.then.val, i32 %sub.i
  br label %cond.end

cond.end:                                         ; preds = %lor.lhs.false, %entry, %_ZNK6vectorI5lboolLb0EjE3getEjRKS0_.exit, %_ZNK6vectorI5lboolLb0EjE3getEjRKS0_.exit.cont
  %cond = phi i32 [ 0, %_ZNK6vectorI5lboolLb0EjE3getEjRKS0_.exit.cont ], [ 0, %_ZNK6vectorI5lboolLb0EjE3getEjRKS0_.exit ], [ 0, %entry ], [ %spec.select, %lor.lhs.false ]
  ret i32 %cond
}